; Function Attrs: mustprogress null_pointer_is_valid sspstrong uwtable
define void @_ZN21BluetoothDeviceDialog28on_tableWidget_itemActivatedEP16QTableWidgetItem(ptr noundef align 8 dereferenceable_or_null(268) %0, ptr noundef %1) local_unnamed_addr #0 align 2 personality ptr @__gxx_personality_v0 {
  %3 = alloca %class.QMetaType, align 8
  %4 = alloca %class.QVariant, align 8
  %5 = alloca %class.QVariant, align 8
  %6 = getelementptr inbounds nuw i8, ptr %0, i64 72
  %7 = load ptr, ptr %6, align 8
  %8 = tail call noundef zeroext i1 @_ZNK11CaptureFile7isValidEv(ptr noundef align 8 dereferenceable_or_null(48) %7)
  br i1 %8, label %9, label %29

9:                                                ; preds = %2
  call void @llvm.lifetime.start.p0(i64 32, ptr nonnull %4) #24
  %10 = load ptr, ptr %1, align 8
  %11 = getelementptr inbounds nuw i8, ptr %10, i64 24
  %12 = load ptr, ptr %11, align 8
  call void %12(ptr dead_on_unwind nonnull writable sret(%class.QVariant) align 8 %4, ptr noundef align 8 dereferenceable_or_null(60) %1, i32 noundef 256)
  call void @llvm.lifetime.start.p0(i64 8, ptr nonnull %3) #24
  %13 = getelementptr inbounds nuw i8, ptr %4, i64 24
  %14 = load i64, ptr %13, align 8
  %15 = and i64 %14, -4
  %16 = inttoptr i64 %15 to ptr
  store ptr %16, ptr %3, align 8
  %17 = invoke noundef zeroext i1 @_ZNK9QMetaType7isValidEv(ptr noundef nonnull align 8 dereferenceable_or_null(8) %3)
          to label %18 unwind label %19

18:                                               ; preds = %9
  call void @llvm.lifetime.end.p0(i64 8, ptr nonnull %3) #24
  call void @_ZN8QVariantD1Ev(ptr noundef nonnull align 8 dereferenceable_or_null(32) %4) #24
  call void @llvm.lifetime.end.p0(i64 32, ptr nonnull %4) #24
  br i1 %17, label %21, label %29

19:                                               ; preds = %9
  %20 = landingpad { ptr, i32 }
          cleanup
  call void @_ZN8QVariantD1Ev(ptr noundef nonnull align 8 dereferenceable_or_null(32) %4) #24
  call void @llvm.lifetime.end.p0(i64 32, ptr nonnull %4) #24
  br label %32

21:                                               ; preds = %18
  %22 = load ptr, ptr %1, align 8
  %23 = getelementptr inbounds nuw i8, ptr %22, i64 24
  %24 = load ptr, ptr %23, align 8
  call void %24(ptr dead_on_unwind nonnull writable sret(%class.QVariant) align 8 %5, ptr noundef align 8 dereferenceable_or_null(60) %1, i32 noundef 256)
  %25 = invoke noundef ptr @_ZN14VariantPointerI22_bluetooth_item_data_tE5asPtrE8QVariant(ptr noundef nonnull %5)
          to label %26 unwind label %30

26:                                               ; preds = %21
  call void @_ZN8QVariantD1Ev(ptr noundef nonnull align 8 dereferenceable_or_null(32) %5) #24
  %27 = getelementptr inbounds nuw i8, ptr %25, i64 8
  %28 = load i32, ptr %27, align 4
  call void @_ZN21BluetoothDeviceDialog10goToPacketEi(ptr noundef align 8 dereferenceable_or_null(268) %0, i32 noundef %28)
  br label %29

29:                                               ; preds = %18, %2, %26
  ret void

30:                                               ; preds = %21
  %31 = landingpad { ptr, i32 }
          cleanup
  call void @_ZN8QVariantD1Ev(ptr noundef nonnull align 8 dereferenceable_or_null(32) %5) #24
  br label %32

32:                                               ; preds = %30, %19
  %.pn = phi { ptr, i32 } [ %31, %30 ], [ %20, %19 ]
  resume { ptr, i32 } %.pn
}